; ModuleID = '24/1276.c'
source_filename = "24/1276.c"
target datalayout = "e-m:e-p270:32:32-p271:32:32-p272:64:64-i64:64-f80:128-n8:16:32:64-S128"
target triple = "x86_64-pc-linux-gnu"

; Function Attrs: noinline nounwind uwtable
define dso_local i32 @main() #0 {
  %1 = alloca i32, align 4
  %2 = alloca i32, align 4
  %3 = alloca i32, align 4
  %4 = alloca i32, align 4
  %5 = alloca i32, align 4
  %6 = alloca i32, align 4
  %7 = alloca [1000 x i8], align 16
  %8 = alloca [50 x [20 x i8]], align 16
  %9 = alloca [50 x i8], align 16
  store i32 0, i32* %1, align 4
  store i32 0, i32* %2, align 4
  store i32 0, i32* %3, align 4
  %10 = getelementptr inbounds [1000 x i8], [1000 x i8]* %7, i64 0, i64 0
  %11 = call i32 (i8*, ...) bitcast (i32 (...)* @gets to i32 (i8*, ...)*)(i8* %10)
  store i32 0, i32* %4, align 4
  br label %12

12:                                               ; preds = %64, %0
  %13 = load i32, i32* %4, align 4
  %14 = sext i32 %13 to i64
  %15 = getelementptr inbounds [1000 x i8], [1000 x i8]* %7, i64 0, i64 0
  %16 = call i64 @strlen(i8* %15) #4
  %17 = add i64 %16, 1
  %18 = icmp ult i64 %14, %17
  br i1 %18, label %19, label %67

19:                                               ; preds = %12
  %20 = load i32, i32* %4, align 4
  %21 = sext i32 %20 to i64
  %22 = getelementptr inbounds [1000 x i8], [1000 x i8]* %7, i64 0, i64 %21
  %23 = load i8, i8* %22, align 1
  %24 = sext i8 %23 to i32
  %25 = icmp ne i32 %24, 32
  br i1 %25, label %26, label %39

26:                                               ; preds = %19
  %27 = load i32, i32* %4, align 4
  %28 = sext i32 %27 to i64
  %29 = getelementptr inbounds [1000 x i8], [1000 x i8]* %7, i64 0, i64 %28
  %30 = load i8, i8* %29, align 1
  %31 = load i32, i32* %2, align 4
  %32 = sext i32 %31 to i64
  %33 = getelementptr inbounds [50 x [20 x i8]], [50 x [20 x i8]]* %8, i64 0, i64 %32
  %34 = load i32, i32* %3, align 4
  %35 = sext i32 %34 to i64
  %36 = getelementptr inbounds [20 x i8], [20 x i8]* %33, i64 0, i64 %35
  store i8 %30, i8* %36, align 1
  %37 = load i32, i32* %3, align 4
  %38 = add nsw i32 %37, 1
  store i32 %38, i32* %3, align 4
  br label %63

39:                                               ; preds = %19
  %40 = load i32, i32* %4, align 4
  %41 = sext i32 %40 to i64
  %42 = getelementptr inbounds [1000 x i8], [1000 x i8]* %7, i64 0, i64 %41
  %43 = load i8, i8* %42, align 1
  %44 = sext i8 %43 to i32
  %45 = icmp eq i32 %44, 0
  br i1 %45, label %46, label %53

46:                                               ; preds = %39
  %47 = load i32, i32* %2, align 4
  %48 = sext i32 %47 to i64
  %49 = getelementptr inbounds [50 x [20 x i8]], [50 x [20 x i8]]* %8, i64 0, i64 %48
  %50 = load i32, i32* %3, align 4
  %51 = sext i32 %50 to i64
  %52 = getelementptr inbounds [20 x i8], [20 x i8]* %49, i64 0, i64 %51
  store i8 0, i8* %52, align 1
  br label %62

53:                                               ; preds = %39
  %54 = load i32, i32* %2, align 4
  %55 = sext i32 %54 to i64
  %56 = getelementptr inbounds [50 x [20 x i8]], [50 x [20 x i8]]* %8, i64 0, i64 %55
  %57 = load i32, i32* %3, align 4
  %58 = sext i32 %57 to i64
  %59 = getelementptr inbounds [20 x i8], [20 x i8]* %56, i64 0, i64 %58
  store i8 0, i8* %59, align 1
  %60 = load i32, i32* %2, align 4
  %61 = add nsw i32 %60, 1
  store i32 %61, i32* %2, align 4
  store i32 0, i32* %3, align 4
  br label %62

62:                                               ; preds = %53, %46
  br label %63

63:                                               ; preds = %62, %26
  br label %64

64:                                               ; preds = %63
  %65 = load i32, i32* %4, align 4
  %66 = add nsw i32 %65, 1
  store i32 %66, i32* %4, align 4
  br label %12

67:                                               ; preds = %12
  %68 = load i32, i32* %2, align 4
  %69 = add nsw i32 %68, 1
  store i32 %69, i32* %6, align 4
  store i32 1, i32* %5, align 4
  br label %70

70:                                               ; preds = %123, %67
  %71 = load i32, i32* %5, align 4
  %72 = load i32, i32* %6, align 4
  %73 = icmp sle i32 %71, %72
  br i1 %73, label %74, label %126

74:                                               ; preds = %70
  store i32 0, i32* %2, align 4
  br label %75

75:                                               ; preds = %119, %74
  %76 = load i32, i32* %2, align 4
  %77 = load i32, i32* %6, align 4
  %78 = load i32, i32* %5, align 4
  %79 = sub nsw i32 %77, %78
  %80 = icmp slt i32 %76, %79
  br i1 %80, label %81, label %122

81:                                               ; preds = %75
  %82 = load i32, i32* %2, align 4
  %83 = sext i32 %82 to i64
  %84 = getelementptr inbounds [50 x [20 x i8]], [50 x [20 x i8]]* %8, i64 0, i64 %83
  %85 = getelementptr inbounds [20 x i8], [20 x i8]* %84, i64 0, i64 0
  %86 = call i64 @strlen(i8* %85) #4
  %87 = load i32, i32* %2, align 4
  %88 = add nsw i32 %87, 1
  %89 = sext i32 %88 to i64
  %90 = getelementptr inbounds [50 x [20 x i8]], [50 x [20 x i8]]* %8, i64 0, i64 %89
  %91 = getelementptr inbounds [20 x i8], [20 x i8]* %90, i64 0, i64 0
  %92 = call i64 @strlen(i8* %91) #4
  %93 = icmp ugt i64 %86, %92
  br i1 %93, label %94, label %118

94:                                               ; preds = %81
  %95 = getelementptr inbounds [50 x i8], [50 x i8]* %9, i64 0, i64 0
  %96 = load i32, i32* %2, align 4
  %97 = sext i32 %96 to i64
  %98 = getelementptr inbounds [50 x [20 x i8]], [50 x [20 x i8]]* %8, i64 0, i64 %97
  %99 = getelementptr inbounds [20 x i8], [20 x i8]* %98, i64 0, i64 0
  %100 = call i8* @strcpy(i8* %95, i8* %99) #5
  %101 = load i32, i32* %2, align 4
  %102 = sext i32 %101 to i64
  %103 = getelementptr inbounds [50 x [20 x i8]], [50 x [20 x i8]]* %8, i64 0, i64 %102
  %104 = getelementptr inbounds [20 x i8], [20 x i8]* %103, i64 0, i64 0
  %105 = load i32, i32* %2, align 4
  %106 = add nsw i32 %105, 1
  %107 = sext i32 %106 to i64
  %108 = getelementptr inbounds [50 x [20 x i8]], [50 x [20 x i8]]* %8, i64 0, i64 %107
  %109 = getelementptr inbounds [20 x i8], [20 x i8]* %108, i64 0, i64 0
  %110 = call i8* @strcpy(i8* %104, i8* %109) #5
  %111 = load i32, i32* %2, align 4
  %112 = add nsw i32 %111, 1
  %113 = sext i32 %112 to i64
  %114 = getelementptr inbounds [50 x [20 x i8]], [50 x [20 x i8]]* %8, i64 0, i64 %113
  %115 = getelementptr inbounds [20 x i8], [20 x i8]* %114, i64 0, i64 0
  %116 = getelementptr inbounds [50 x i8], [50 x i8]* %9, i64 0, i64 0
  %117 = call i8* @strcpy(i8* %115, i8* %116) #5
  br label %118

118:                                              ; preds = %94, %81
  br label %119

119:                                              ; preds = %118
  %120 = load i32, i32* %2, align 4
  %121 = add nsw i32 %120, 1
  store i32 %121, i32* %2, align 4
  br label %75

122:                                              ; preds = %75
  br label %123

123:                                              ; preds = %122
  %124 = load i32, i32* %5, align 4
  %125 = add nsw i32 %124, 1
  store i32 %125, i32* %5, align 4
  br label %70

126:                                              ; preds = %70
  %127 = load i32, i32* %6, align 4
  %128 = sub nsw i32 %127, 1
  %129 = sext i32 %128 to i64
  %130 = getelementptr inbounds [50 x [20 x i8]], [50 x [20 x i8]]* %8, i64 0, i64 %129
  %131 = getelementptr inbounds [20 x i8], [20 x i8]* %130, i64 0, i64 0
  %132 = call i32 @puts(i8* %131)
  %133 = getelementptr inbounds [50 x [20 x i8]], [50 x [20 x i8]]* %8, i64 0, i64 0
  %134 = getelementptr inbounds [20 x i8], [20 x i8]* %133, i64 0, i64 0
  %135 = call i32 @puts(i8* %134)
  ret i32 0
}

declare dso_local i32 @gets(...) #1

; Function Attrs: nounwind readonly
declare dso_local i64 @strlen(i8*) #2

; Function Attrs: nounwind
declare dso_local i8* @strcpy(i8*, i8*) #3

declare dso_local i32 @puts(i8*) #1


!llvm.module.flags = !{!0}
!llvm.ident = !{!1}

!0 = !{i32 1, !"wchar_size", i32 4}
!1 = !{!"clang version 10.0.0-4ubuntu1 "}
